target datalayout = "e-m:e-p270:32:32-p271:32:32-p272:64:64-i64:64-i128:128-f80:128-n8:16:32:64-S128"
target triple = "x86_64-pc-linux-gnu"

@EncodeDataBase64.base64encodeTable = internal constant [64 x i8] c"ABCDEFGHIJKLMNOPQRSTUVWXYZabcdefghijklmnopqrstuvwxyz0123456789+/", align 16
@EncodeDataBase64.modTable = internal constant [3 x i32] [i32 0, i32 2, i32 1], align 4

; Function Attrs: nounwind uwtable
define ptr @EncodeDataBase64(ptr noundef %0, i32 noundef %1, ptr noundef %2) #0 {
  %4 = alloca ptr, align 8
  %5 = alloca ptr, align 8
  %6 = alloca i32, align 4
  %7 = alloca ptr, align 8
  %8 = alloca ptr, align 8
  %9 = alloca i32, align 4
  %10 = alloca i32, align 4
  %11 = alloca i32, align 4
  %12 = alloca i32, align 4
  %13 = alloca i32, align 4
  %14 = alloca i32, align 4
  %15 = alloca i32, align 4
  %16 = alloca i32, align 4
  store ptr %0, ptr %5, align 8
  store i32 %1, ptr %6, align 4
  store ptr %2, ptr %7, align 8
  %17 = load i32, ptr %6, align 4
  %18 = add nsw i32 %17, 2
  %19 = sdiv i32 %18, 3
  %20 = mul nsw i32 4, %19
  %21 = load ptr, ptr %7, align 8
  store i32 %20, ptr %21, align 4
  call void @llvm.lifetime.start.p0(i64 8, ptr %8) #16
  %22 = load ptr, ptr %7, align 8
  %23 = load i32, ptr %22, align 4
  %24 = sext i32 %23 to i64
  %25 = call noalias ptr @malloc(i64 noundef %24) #19
  store ptr %25, ptr %8, align 8
  %26 = load ptr, ptr %8, align 8
  %27 = icmp eq ptr %26, null
  br i1 %27, label %28, label %29

28:                                               ; preds = %3
  store ptr null, ptr %4, align 8
  store i32 1, ptr %9, align 4
  br label %153

29:                                               ; preds = %3
  call void @llvm.lifetime.start.p0(i64 4, ptr %10) #16
  store i32 0, ptr %10, align 4
  call void @llvm.lifetime.start.p0(i64 4, ptr %11) #16
  store i32 0, ptr %11, align 4
  br label %30

30:                                               ; preds = %76, %29
  %31 = load i32, ptr %10, align 4
  %32 = load i32, ptr %6, align 4
  %33 = icmp slt i32 %31, %32
  br i1 %33, label %35, label %34

34:                                               ; preds = %30
  store i32 2, ptr %9, align 4
  call void @llvm.lifetime.end.p0(i64 4, ptr %11) #16
  call void @llvm.lifetime.end.p0(i64 4, ptr %10) #16
  br label %129

35:                                               ; preds = %30
  call void @llvm.lifetime.start.p0(i64 4, ptr %12) #16
  %36 = load i32, ptr %10, align 4
  %37 = load i32, ptr %6, align 4
  %38 = icmp slt i32 %36, %37
  br i1 %38, label %39, label %47

39:                                               ; preds = %35
  %40 = load ptr, ptr %5, align 8
  %41 = load i32, ptr %10, align 4
  %42 = add nsw i32 %41, 1
  store i32 %42, ptr %10, align 4
  %43 = sext i32 %41 to i64
  %44 = getelementptr inbounds i8, ptr %40, i64 %43
  %45 = load i8, ptr %44, align 1
  %46 = zext i8 %45 to i32
  br label %48

47:                                               ; preds = %35
  br label %48

48:                                               ; preds = %47, %39
  %49 = phi i32 [ %46, %39 ], [ 0, %47 ]
  store i32 %49, ptr %12, align 4
  call void @llvm.lifetime.start.p0(i64 4, ptr %13) #16
  %50 = load i32, ptr %10, align 4
  %51 = load i32, ptr %6, align 4
  %52 = icmp slt i32 %50, %51
  br i1 %52, label %53, label %61

53:                                               ; preds = %48
  %54 = load ptr, ptr %5, align 8
  %55 = load i32, ptr %10, align 4
  %56 = add nsw i32 %55, 1
  store i32 %56, ptr %10, align 4
  %57 = sext i32 %55 to i64
  %58 = getelementptr inbounds i8, ptr %54, i64 %57
  %59 = load i8, ptr %58, align 1
  %60 = zext i8 %59 to i32
  br label %62

61:                                               ; preds = %48
  br label %62

62:                                               ; preds = %61, %53
  %63 = phi i32 [ %60, %53 ], [ 0, %61 ]
  store i32 %63, ptr %13, align 4
  call void @llvm.lifetime.start.p0(i64 4, ptr %14) #16
  %64 = load i32, ptr %10, align 4
  %65 = load i32, ptr %6, align 4
  %66 = icmp slt i32 %64, %65
  br i1 %66, label %67, label %75

67:                                               ; preds = %62
  %68 = load ptr, ptr %5, align 8
  %69 = load i32, ptr %10, align 4
  %70 = add nsw i32 %69, 1
  store i32 %70, ptr %10, align 4
  %71 = sext i32 %69 to i64
  %72 = getelementptr inbounds i8, ptr %68, i64 %71
  %73 = load i8, ptr %72, align 1
  %74 = zext i8 %73 to i32
  br label %76

75:                                               ; preds = %62
  br label %76

76:                                               ; preds = %75, %67
  %77 = phi i32 [ %74, %67 ], [ 0, %75 ]
  store i32 %77, ptr %14, align 4
  call void @llvm.lifetime.start.p0(i64 4, ptr %15) #16
  %78 = load i32, ptr %12, align 4
  %79 = shl i32 %78, 16
  %80 = load i32, ptr %13, align 4
  %81 = shl i32 %80, 8
  %82 = add i32 %79, %81
  %83 = load i32, ptr %14, align 4
  %84 = add i32 %82, %83
  store i32 %84, ptr %15, align 4
  %85 = load i32, ptr %15, align 4
  %86 = lshr i32 %85, 18
  %87 = and i32 %86, 63
  %88 = zext i32 %87 to i64
  %89 = getelementptr inbounds nuw [64 x i8], ptr @EncodeDataBase64.base64encodeTable, i64 0, i64 %88
  %90 = load i8, ptr %89, align 1
  %91 = load ptr, ptr %8, align 8
  %92 = load i32, ptr %11, align 4
  %93 = add nsw i32 %92, 1
  store i32 %93, ptr %11, align 4
  %94 = sext i32 %92 to i64
  %95 = getelementptr inbounds i8, ptr %91, i64 %94
  store i8 %90, ptr %95, align 1
  %96 = load i32, ptr %15, align 4
  %97 = lshr i32 %96, 12
  %98 = and i32 %97, 63
  %99 = zext i32 %98 to i64
  %100 = getelementptr inbounds nuw [64 x i8], ptr @EncodeDataBase64.base64encodeTable, i64 0, i64 %99
  %101 = load i8, ptr %100, align 1
  %102 = load ptr, ptr %8, align 8
  %103 = load i32, ptr %11, align 4
  %104 = add nsw i32 %103, 1
  store i32 %104, ptr %11, align 4
  %105 = sext i32 %103 to i64
  %106 = getelementptr inbounds i8, ptr %102, i64 %105
  store i8 %101, ptr %106, align 1
  %107 = load i32, ptr %15, align 4
  %108 = lshr i32 %107, 6
  %109 = and i32 %108, 63
  %110 = zext i32 %109 to i64
  %111 = getelementptr inbounds nuw [64 x i8], ptr @EncodeDataBase64.base64encodeTable, i64 0, i64 %110
  %112 = load i8, ptr %111, align 1
  %113 = load ptr, ptr %8, align 8
  %114 = load i32, ptr %11, align 4
  %115 = add nsw i32 %114, 1
  store i32 %115, ptr %11, align 4
  %116 = sext i32 %114 to i64
  %117 = getelementptr inbounds i8, ptr %113, i64 %116
  store i8 %112, ptr %117, align 1
  %118 = load i32, ptr %15, align 4
  %119 = lshr i32 %118, 0
  %120 = and i32 %119, 63
  %121 = zext i32 %120 to i64
  %122 = getelementptr inbounds nuw [64 x i8], ptr @EncodeDataBase64.base64encodeTable, i64 0, i64 %121
  %123 = load i8, ptr %122, align 1
  %124 = load ptr, ptr %8, align 8
  %125 = load i32, ptr %11, align 4
  %126 = add nsw i32 %125, 1
  store i32 %126, ptr %11, align 4
  %127 = sext i32 %125 to i64
  %128 = getelementptr inbounds i8, ptr %124, i64 %127
  store i8 %123, ptr %128, align 1
  call void @llvm.lifetime.end.p0(i64 4, ptr %15) #16
  call void @llvm.lifetime.end.p0(i64 4, ptr %14) #16
  call void @llvm.lifetime.end.p0(i64 4, ptr %13) #16
  call void @llvm.lifetime.end.p0(i64 4, ptr %12) #16
  br label %30

129:                                              ; preds = %34
  call void @llvm.lifetime.start.p0(i64 4, ptr %16) #16
  store i32 0, ptr %16, align 4
  br label %130

130:                                              ; preds = %148, %129
  %131 = load i32, ptr %16, align 4
  %132 = load i32, ptr %6, align 4
  %133 = srem i32 %132, 3
  %134 = sext i32 %133 to i64
  %135 = getelementptr inbounds [3 x i32], ptr @EncodeDataBase64.modTable, i64 0, i64 %134
  %136 = load i32, ptr %135, align 4
  %137 = icmp slt i32 %131, %136
  br i1 %137, label %139, label %138

138:                                              ; preds = %130
  store i32 4, ptr %9, align 4
  call void @llvm.lifetime.end.p0(i64 4, ptr %16) #16
  br label %151

139:                                              ; preds = %130
  %140 = load ptr, ptr %8, align 8
  %141 = load ptr, ptr %7, align 8
  %142 = load i32, ptr %141, align 4
  %143 = sub nsw i32 %142, 1
  %144 = load i32, ptr %16, align 4
  %145 = sub nsw i32 %143, %144
  %146 = sext i32 %145 to i64
  %147 = getelementptr inbounds i8, ptr %140, i64 %146
  store i8 61, ptr %147, align 1
  br label %148

148:                                              ; preds = %139
  %149 = load i32, ptr %16, align 4
  %150 = add nsw i32 %149, 1
  store i32 %150, ptr %16, align 4
  br label %130

151:                                              ; preds = %138
  %152 = load ptr, ptr %8, align 8
  store ptr %152, ptr %4, align 8
  store i32 1, ptr %9, align 4
  br label %153

153:                                              ; preds = %151, %28
  call void @llvm.lifetime.end.p0(i64 8, ptr %8) #16
  %154 = load ptr, ptr %4, align 8
  ret ptr %154
}