; Function Attrs: nofree nounwind memory(write, argmem: readwrite, inaccessiblemem: readwrite) uwtable
define noalias noundef ptr @EncodeDataBase64(ptr noundef readonly captures(none) %0, i32 noundef %1, ptr noundef writeonly captures(none) initializes((0, 4)) %2) local_unnamed_addr #48 {
  %4 = add nsw i32 %1, 2
  %5 = sdiv i32 %4, 3
  %6 = shl nsw i32 %5, 2
  store i32 %6, ptr %2, align 4
  %7 = sext i32 %6 to i64
  %8 = tail call noalias ptr @malloc(i64 noundef %7) #58
  %9 = icmp eq ptr %8, null
  br i1 %9, label %.loopexit, label %.preheader46

.preheader46:                                     ; preds = %3
  %10 = icmp sgt i32 %1, 0
  br i1 %10, label %.lr.ph, label %.preheader

.preheader:                                       ; preds = %39, %.preheader46
  %11 = srem i32 %1, 3
  %12 = add nsw i32 %11, -1
  %13 = icmp ult i32 %12, 2
  br i1 %13, label %.lr.ph50.preheader, label %.loopexit

.lr.ph50.preheader:                               ; preds = %.preheader
  %14 = zext nneg i32 %11 to i64
  %15 = getelementptr inbounds nuw [3 x i32], ptr @EncodeDataBase64.modTable, i64 0, i64 %14
  %16 = load i32, ptr %15, align 4
  %smax = tail call i32 @llvm.smax.i32(i32 %16, i32 1)
  %wide.trip.count = zext nneg i32 %smax to i64
  br label %.lr.ph50

.lr.ph:                                           ; preds = %.preheader46, %39
  %indvars.iv = phi i64 [ %indvars.iv.next, %39 ], [ 0, %.preheader46 ]
  %.04148 = phi i32 [ %.3, %39 ], [ 0, %.preheader46 ]
  %17 = add nsw i32 %.04148, 1
  %18 = sext i32 %.04148 to i64
  %19 = getelementptr inbounds i8, ptr %0, i64 %18
  %20 = load i8, ptr %19, align 1
  %21 = zext i8 %20 to i32
  %22 = icmp slt i32 %17, %1
  br i1 %22, label %23, label %30

23:                                               ; preds = %.lr.ph
  %24 = add nsw i32 %.04148, 2
  %25 = sext i32 %17 to i64
  %26 = getelementptr inbounds i8, ptr %0, i64 %25
  %27 = load i8, ptr %26, align 1
  %28 = zext i8 %27 to i32
  %29 = shl nuw nsw i32 %28, 8
  br label %30

30:                                               ; preds = %.lr.ph, %23
  %.2 = phi i32 [ %24, %23 ], [ %17, %.lr.ph ]
  %31 = phi i32 [ %29, %23 ], [ 0, %.lr.ph ]
  %32 = icmp slt i32 %.2, %1
  br i1 %32, label %33, label %39

33:                                               ; preds = %30
  %34 = add nsw i32 %.2, 1
  %35 = sext i32 %.2 to i64
  %36 = getelementptr inbounds i8, ptr %0, i64 %35
  %37 = load i8, ptr %36, align 1
  %38 = zext i8 %37 to i32
  br label %39

39:                                               ; preds = %30, %33
  %.3 = phi i32 [ %34, %33 ], [ %.2, %30 ]
  %40 = phi i32 [ %38, %33 ], [ 0, %30 ]
  %41 = shl nuw nsw i32 %21, 16
  %42 = add nuw nsw i32 %31, %41
  %43 = or disjoint i32 %40, %31
  %44 = lshr i32 %42, 18
  %45 = zext nneg i32 %44 to i64
  %46 = getelementptr inbounds nuw [64 x i8], ptr @EncodeDataBase64.base64encodeTable, i64 0, i64 %45
  %47 = load i8, ptr %46, align 1
  %48 = getelementptr inbounds nuw i8, ptr %8, i64 %indvars.iv
  store i8 %47, ptr %48, align 1
  %49 = lshr i32 %42, 12
  %50 = and i32 %49, 63
  %51 = zext nneg i32 %50 to i64
  %52 = getelementptr inbounds nuw [64 x i8], ptr @EncodeDataBase64.base64encodeTable, i64 0, i64 %51
  %53 = load i8, ptr %52, align 1
  %54 = getelementptr i8, ptr %48, i64 1
  store i8 %53, ptr %54, align 1
  %55 = lshr i32 %43, 6
  %56 = and i32 %55, 63
  %57 = zext nneg i32 %56 to i64
  %58 = getelementptr inbounds nuw [64 x i8], ptr @EncodeDataBase64.base64encodeTable, i64 0, i64 %57
  %59 = load i8, ptr %58, align 1
  %60 = or disjoint i64 %indvars.iv, 3
  %61 = getelementptr i8, ptr %48, i64 2
  store i8 %59, ptr %61, align 1
  %62 = and i32 %40, 63
  %63 = zext nneg i32 %62 to i64
  %64 = getelementptr inbounds nuw [64 x i8], ptr @EncodeDataBase64.base64encodeTable, i64 0, i64 %63
  %65 = load i8, ptr %64, align 1
  %indvars.iv.next = add nuw nsw i64 %indvars.iv, 4
  %66 = getelementptr inbounds nuw i8, ptr %8, i64 %60
  store i8 %65, ptr %66, align 1
  %67 = icmp slt i32 %.3, %1
  br i1 %67, label %.lr.ph, label %.preheader

.lr.ph50:                                         ; preds = %.lr.ph50.preheader, %.lr.ph50
  %indvars.iv52 = phi i64 [ 0, %.lr.ph50.preheader ], [ %indvars.iv.next53, %.lr.ph50 ]
  %68 = trunc i64 %indvars.iv52 to i32
  %69 = xor i32 %68, -1
  %70 = add i32 %6, %69
  %71 = sext i32 %70 to i64
  %72 = getelementptr inbounds i8, ptr %8, i64 %71
  store i8 61, ptr %72, align 1
  %indvars.iv.next53 = add nuw nsw i64 %indvars.iv52, 1
  %exitcond.not = icmp eq i64 %indvars.iv.next53, %wide.trip.count
  br i1 %exitcond.not, label %.loopexit, label %.lr.ph50

.loopexit:                                        ; preds = %.lr.ph50, %.preheader, %3
  ret ptr %8
}